target datalayout = "e-m:e-p270:32:32-p271:32:32-p272:64:64-i64:64-i128:128-f80:128-n8:16:32:64-S128"
target triple = "x86_64-pc-linux-gnu"

; Function Attrs: alwaysinline mustprogress nounwind uwtable
define linkonce_odr hidden noundef float @_ZN11OpenImageIO6v3_1_05clampIfEET_RKS2_S4_S4_(ptr noundef nonnull align 4 dereferenceable(4) %0, ptr noundef nonnull align 4 dereferenceable(4) %1, ptr noundef nonnull align 4 dereferenceable(4) %2) #12 comdat {
  %4 = alloca ptr, align 8
  %5 = alloca ptr, align 8
  %6 = alloca ptr, align 8
  %7 = alloca float, align 4
  store ptr %0, ptr %4, align 8, !tbaa !243
  store ptr %1, ptr %5, align 8, !tbaa !243
  store ptr %2, ptr %6, align 8, !tbaa !243
  call void @llvm.lifetime.start.p0(i64 4, ptr %7) #3
  %8 = load ptr, ptr %4, align 8, !tbaa !243
  %9 = load float, ptr %8, align 4, !tbaa !142
  store float %9, ptr %7, align 4, !tbaa !142
  %10 = load ptr, ptr %5, align 8, !tbaa !243
  %11 = load float, ptr %10, align 4, !tbaa !142
  %12 = load float, ptr %7, align 4, !tbaa !142
  %13 = fcmp ole float %11, %12
  br i1 %13, label %17, label %14

14:                                               ; preds = %3
  %15 = load ptr, ptr %5, align 8, !tbaa !243
  %16 = load float, ptr %15, align 4, !tbaa !142
  store float %16, ptr %7, align 4, !tbaa !142
  br label %17

17:                                               ; preds = %14, %3
  %18 = load float, ptr %7, align 4, !tbaa !142
  %19 = load ptr, ptr %6, align 8, !tbaa !243
  %20 = load float, ptr %19, align 4, !tbaa !142
  %21 = fcmp ogt float %18, %20
  br i1 %21, label %22, label %25

22:                                               ; preds = %17
  %23 = load ptr, ptr %6, align 8, !tbaa !243
  %24 = load float, ptr %23, align 4, !tbaa !142
  store float %24, ptr %7, align 4, !tbaa !142
  br label %25

25:                                               ; preds = %22, %17
  %26 = load float, ptr %7, align 4, !tbaa !142
  call void @llvm.lifetime.end.p0(i64 4, ptr %7) #3
  ret float %26
}

; Function Attrs: inlinehint mustprogress nounwind uwtable
define linkonce_odr hidden noundef zeroext i16 @_ZN11OpenImageIO6v3_1_017scaled_conversionIftfEET0_RKT_T1_S6_S6_(ptr noundef nonnull align 4 dereferenceable(4) %0, float noundef %1, float noundef %2, float noundef %3) #4 comdat {
  %5 = alloca ptr, align 8
  %6 = alloca float, align 4
  %7 = alloca float, align 4
  %8 = alloca float, align 4
  %9 = alloca float, align 4
  store ptr %0, ptr %5, align 8, !tbaa !243
  store float %1, ptr %6, align 4, !tbaa !142
  store float %2, ptr %7, align 4, !tbaa !142
  store float %3, ptr %8, align 4, !tbaa !142
  call void @llvm.lifetime.start.p0(i64 4, ptr %9) #3
  %10 = load ptr, ptr %5, align 8, !tbaa !243
  %11 = load float, ptr %10, align 4, !tbaa !142
  %12 = load float, ptr %6, align 4, !tbaa !142
  %13 = fmul float %11, %12
  store float %13, ptr %9, align 4, !tbaa !142
  %14 = load float, ptr %9, align 4, !tbaa !142
  %15 = fcmp olt float %14, 0.000000e+00
  %16 = select i1 %15, float -5.000000e-01, float 5.000000e-01
  %17 = load float, ptr %9, align 4, !tbaa !142
  %18 = fadd float %17, %16
  store float %18, ptr %9, align 4, !tbaa !142
  %19 = call noundef float @_ZN11OpenImageIO6v3_1_05clampIfEET_RKS2_S4_S4_(ptr noundef nonnull align 4 dereferenceable(4) %9, ptr noundef nonnull align 4 dereferenceable(4) %7, ptr noundef nonnull align 4 dereferenceable(4) %8)
  %20 = fptoui float %19 to i16
  call void @llvm.lifetime.end.p0(i64 4, ptr %9) #3
  ret i16 %20
}

; Function Attrs: mustprogress nounwind uwtable
define linkonce_odr noundef zeroext i16 @_ZNSt14numeric_limitsItE3minEv() #7 comdat align 2 {
  ret i16 0
}

; Function Attrs: mustprogress nounwind uwtable
define linkonce_odr noundef zeroext i16 @_ZNSt14numeric_limitsItE3maxEv() #7 comdat align 2 {
  ret i16 -1
}

; Function Attrs: inlinehint mustprogress uwtable
define linkonce_odr hidden noundef zeroext i16 @_ZN11OpenImageIO6v3_1_012convert_typeIftEET0_RKT_(ptr noundef nonnull align 4 dereferenceable(4) %0) #13 comdat {
  %2 = alloca ptr, align 8
  %3 = alloca float, align 4
  %4 = alloca float, align 4
  %5 = alloca float, align 4
  store ptr %0, ptr %2, align 8, !tbaa !243
  call void @llvm.lifetime.start.p0(i64 4, ptr %3) #3
  store float 1.000000e+00, ptr %3, align 4, !tbaa !142
  call void @llvm.lifetime.start.p0(i64 4, ptr %4) #3
  %6 = call noundef zeroext i16 @_ZNSt14numeric_limitsItE3minEv() #3
  %7 = uitofp i16 %6 to float
  store float %7, ptr %4, align 4, !tbaa !142
  call void @llvm.lifetime.start.p0(i64 4, ptr %5) #3
  %8 = call noundef zeroext i16 @_ZNSt14numeric_limitsItE3maxEv() #3
  %9 = uitofp i16 %8 to float
  store float %9, ptr %5, align 4, !tbaa !142
  %10 = load float, ptr %5, align 4, !tbaa !142
  %11 = load float, ptr %3, align 4, !tbaa !142
  %12 = fmul float %11, %10
  store float %12, ptr %3, align 4, !tbaa !142
  %13 = load ptr, ptr %2, align 8, !tbaa !243
  %14 = load float, ptr %3, align 4, !tbaa !142
  %15 = load float, ptr %4, align 4, !tbaa !142
  %16 = load float, ptr %5, align 4, !tbaa !142
  %17 = call noundef zeroext i16 @_ZN11OpenImageIO6v3_1_017scaled_conversionIftfEET0_RKT_T1_S6_S6_(ptr noundef nonnull align 4 dereferenceable(4) %13, float noundef %14, float noundef %15, float noundef %16)
  call void @llvm.lifetime.end.p0(i64 4, ptr %5) #3
  call void @llvm.lifetime.end.p0(i64 4, ptr %4) #3
  call void @llvm.lifetime.end.p0(i64 4, ptr %3) #3
  ret i16 %17
}

; Function Attrs: inlinehint mustprogress nounwind uwtable
define linkonce_odr hidden noundef float @_ZN11OpenImageIO6v3_1_012convert_typeItfEET0_RKT_(ptr noundef nonnull align 2 dereferenceable(2) %0) #4 comdat {
  %2 = alloca ptr, align 8
  %3 = alloca float, align 4
  store ptr %0, ptr %2, align 8, !tbaa !114
  call void @llvm.lifetime.start.p0(i64 4, ptr %3) #3
  %4 = call noundef zeroext i16 @_ZNSt14numeric_limitsItE3maxEv() #3
  %5 = uitofp i16 %4 to float
  %6 = fdiv float 1.000000e+00, %5
  store float %6, ptr %3, align 4, !tbaa !142
  %7 = load ptr, ptr %2, align 8, !tbaa !114
  %8 = load i16, ptr %7, align 2, !tbaa !110
  %9 = uitofp i16 %8 to float
  %10 = load float, ptr %3, align 4, !tbaa !142
  %11 = fmul float %9, %10
  call void @llvm.lifetime.end.p0(i64 4, ptr %3) #3
  ret float %11
}

; Function Attrs: mustprogress uwtable
define internal void @_ZN11OpenImageIO6v3_1_0L11cmyk_to_rgbItEEviPKT_mPS2_m(i32 noundef %0, ptr noundef %1, i64 noundef %2, ptr noundef %3, i64 noundef %4) #6 {
  %6 = alloca i32, align 4
  %7 = alloca ptr, align 8
  %8 = alloca i64, align 8
  %9 = alloca ptr, align 8
  %10 = alloca i64, align 8
  %11 = alloca float, align 4
  %12 = alloca float, align 4
  %13 = alloca float, align 4
  %14 = alloca float, align 4
  %15 = alloca float, align 4
  %16 = alloca float, align 4
  %17 = alloca float, align 4
  store i32 %0, ptr %6, align 4, !tbaa !22
  store ptr %1, ptr %7, align 8, !tbaa !114
  store i64 %2, ptr %8, align 8, !tbaa !109
  store ptr %3, ptr %9, align 8, !tbaa !114
  store i64 %4, ptr %10, align 8, !tbaa !109
  br label %18

18:                                               ; preds = %58, %5
  %19 = load i32, ptr %6, align 4, !tbaa !22
  %20 = icmp ne i32 %19, 0
  br i1 %20, label %21, label %67

21:                                               ; preds = %18
  call void @llvm.lifetime.start.p0(i64 4, ptr %11) #3
  %22 = load ptr, ptr %7, align 8, !tbaa !114
  %23 = getelementptr inbounds i16, ptr %22, i64 0
  %24 = call noundef float @_ZN11OpenImageIO6v3_1_012convert_typeItfEET0_RKT_(ptr noundef nonnull align 2 dereferenceable(2) %23)
  store float %24, ptr %11, align 4, !tbaa !142
  call void @llvm.lifetime.start.p0(i64 4, ptr %12) #3
  %25 = load ptr, ptr %7, align 8, !tbaa !114
  %26 = getelementptr inbounds i16, ptr %25, i64 1
  %27 = call noundef float @_ZN11OpenImageIO6v3_1_012convert_typeItfEET0_RKT_(ptr noundef nonnull align 2 dereferenceable(2) %26)
  store float %27, ptr %12, align 4, !tbaa !142
  call void @llvm.lifetime.start.p0(i64 4, ptr %13) #3
  %28 = load ptr, ptr %7, align 8, !tbaa !114
  %29 = getelementptr inbounds i16, ptr %28, i64 2
  %30 = call noundef float @_ZN11OpenImageIO6v3_1_012convert_typeItfEET0_RKT_(ptr noundef nonnull align 2 dereferenceable(2) %29)
  store float %30, ptr %13, align 4, !tbaa !142
  call void @llvm.lifetime.start.p0(i64 4, ptr %14) #3
  %31 = load ptr, ptr %7, align 8, !tbaa !114
  %32 = getelementptr inbounds i16, ptr %31, i64 3
  %33 = call noundef float @_ZN11OpenImageIO6v3_1_012convert_typeItfEET0_RKT_(ptr noundef nonnull align 2 dereferenceable(2) %32)
  store float %33, ptr %14, align 4, !tbaa !142
  call void @llvm.lifetime.start.p0(i64 4, ptr %15) #3
  %34 = load float, ptr %11, align 4, !tbaa !142
  %35 = fsub float 1.000000e+00, %34
  %36 = load float, ptr %14, align 4, !tbaa !142
  %37 = fsub float 1.000000e+00, %36
  %38 = fmul float %35, %37
  store float %38, ptr %15, align 4, !tbaa !142
  call void @llvm.lifetime.start.p0(i64 4, ptr %16) #3
  %39 = load float, ptr %12, align 4, !tbaa !142
  %40 = fsub float 1.000000e+00, %39
  %41 = load float, ptr %14, align 4, !tbaa !142
  %42 = fsub float 1.000000e+00, %41
  %43 = fmul float %40, %42
  store float %43, ptr %16, align 4, !tbaa !142
  call void @llvm.lifetime.start.p0(i64 4, ptr %17) #3
  %44 = load float, ptr %13, align 4, !tbaa !142
  %45 = fsub float 1.000000e+00, %44
  %46 = load float, ptr %14, align 4, !tbaa !142
  %47 = fsub float 1.000000e+00, %46
  %48 = fmul float %45, %47
  store float %48, ptr %17, align 4, !tbaa !142
  %49 = call noundef zeroext i16 @_ZN11OpenImageIO6v3_1_012convert_typeIftEET0_RKT_(ptr noundef nonnull align 4 dereferenceable(4) %15)
  %50 = load ptr, ptr %9, align 8, !tbaa !114
  %51 = getelementptr inbounds i16, ptr %50, i64 0
  store i16 %49, ptr %51, align 2, !tbaa !110
  %52 = call noundef zeroext i16 @_ZN11OpenImageIO6v3_1_012convert_typeIftEET0_RKT_(ptr noundef nonnull align 4 dereferenceable(4) %16)
  %53 = load ptr, ptr %9, align 8, !tbaa !114
  %54 = getelementptr inbounds i16, ptr %53, i64 1
  store i16 %52, ptr %54, align 2, !tbaa !110
  %55 = call noundef zeroext i16 @_ZN11OpenImageIO6v3_1_012convert_typeIftEET0_RKT_(ptr noundef nonnull align 4 dereferenceable(4) %17)
  %56 = load ptr, ptr %9, align 8, !tbaa !114
  %57 = getelementptr inbounds i16, ptr %56, i64 2
  store i16 %55, ptr %57, align 2, !tbaa !110
  call void @llvm.lifetime.end.p0(i64 4, ptr %17) #3
  call void @llvm.lifetime.end.p0(i64 4, ptr %16) #3
  call void @llvm.lifetime.end.p0(i64 4, ptr %15) #3
  call void @llvm.lifetime.end.p0(i64 4, ptr %14) #3
  call void @llvm.lifetime.end.p0(i64 4, ptr %13) #3
  call void @llvm.lifetime.end.p0(i64 4, ptr %12) #3
  call void @llvm.lifetime.end.p0(i64 4, ptr %11) #3
  br label %58

58:                                               ; preds = %21
  %59 = load i32, ptr %6, align 4, !tbaa !22
  %60 = add nsw i32 %59, -1
  store i32 %60, ptr %6, align 4, !tbaa !22
  %61 = load i64, ptr %8, align 8, !tbaa !109
  %62 = load ptr, ptr %7, align 8, !tbaa !114
  %63 = getelementptr inbounds nuw i16, ptr %62, i64 %61
  store ptr %63, ptr %7, align 8, !tbaa !114
  %64 = load i64, ptr %10, align 8, !tbaa !109
  %65 = load ptr, ptr %9, align 8, !tbaa !114
  %66 = getelementptr inbounds nuw i16, ptr %65, i64 %64
  store ptr %66, ptr %9, align 8, !tbaa !114
  br label %18, !llvm.loop !288

67:                                               ; preds = %18
  ret void
}